; ModuleID = 'source-C-CXX/29/1449.cpp'
source_filename = "source-C-CXX/29/1449.cpp"
target datalayout = "e-m:e-p270:32:32-p271:32:32-p272:64:64-i64:64-f80:128-n8:16:32:64-S128"
target triple = "x86_64-pc-linux-gnu"

%"class.std::ios_base::Init" = type { i8 }
%"class.std::basic_istream" = type { i32 (...)**, i64, %"class.std::basic_ios" }
%"class.std::basic_ios" = type { %"class.std::ios_base", %"class.std::basic_ostream"*, i8, i8, %"class.std::basic_streambuf"*, %"class.std::ctype"*, %"class.std::num_put"*, %"class.std::num_get"* }
%"class.std::ios_base" = type { i32 (...)**, i64, i64, i32, i32, i32, %"struct.std::ios_base::_Callback_list"*, %"struct.std::ios_base::_Words", [8 x %"struct.std::ios_base::_Words"], i32, %"struct.std::ios_base::_Words"*, %"class.std::locale" }
%"struct.std::ios_base::_Callback_list" = type { %"struct.std::ios_base::_Callback_list"*, void (i32, %"class.std::ios_base"*, i32)*, i32, i32 }
%"struct.std::ios_base::_Words" = type { i8*, i64 }
%"class.std::locale" = type { %"class.std::locale::_Impl"* }
%"class.std::locale::_Impl" = type { i32, %"class.std::locale::facet"**, i64, %"class.std::locale::facet"**, i8** }
%"class.std::locale::facet" = type <{ i32 (...)**, i32, [4 x i8] }>
%"class.std::basic_ostream" = type { i32 (...)**, %"class.std::basic_ios" }
%"class.std::basic_streambuf" = type { i32 (...)**, i8*, i8*, i8*, i8*, i8*, i8*, %"class.std::locale" }
%"class.std::ctype" = type <{ %"class.std::locale::facet.base", [4 x i8], %struct.__locale_struct*, i8, [7 x i8], i32*, i32*, i16*, i8, [256 x i8], [256 x i8], i8, [6 x i8] }>
%"class.std::locale::facet.base" = type <{ i32 (...)**, i32 }>
%struct.__locale_struct = type { [13 x %struct.__locale_data*], i16*, i32*, i32*, [13 x i8*] }
%struct.__locale_data = type opaque
%"class.std::num_put" = type { %"class.std::locale::facet.base", [4 x i8] }
%"class.std::num_get" = type { %"class.std::locale::facet.base", [4 x i8] }

@_ZStL8__ioinit = internal global %"class.std::ios_base::Init" zeroinitializer, align 1
@__dso_handle = external hidden global i8
@_ZSt3cin = external global %"class.std::basic_istream", align 8
@_ZSt4cout = external global %"class.std::basic_ostream", align 8
@.str = private unnamed_addr constant [13 x i8] c"wrong!again:\00", align 1
@llvm.global_ctors = appending global [1 x { i32, void ()*, i8* }] [{ i32, void ()*, i8* } { i32 65535, void ()* @_GLOBAL__sub_I_1449.cpp, i8* null }]

declare void @_ZNSt8ios_base4InitC1Ev(%"class.std::ios_base::Init"* nonnull align 1 dereferenceable(1)) unnamed_addr #0

; Function Attrs: nounwind
declare void @_ZNSt8ios_base4InitD1Ev(%"class.std::ios_base::Init"* nonnull align 1 dereferenceable(1)) unnamed_addr #1

; Function Attrs: nofree nounwind
declare i32 @__cxa_atexit(void (i8*)*, i8*, i8*) local_unnamed_addr #2

; Function Attrs: mustprogress norecurse sspstrong uwtable
define dso_local i32 @main() local_unnamed_addr #3 {
  %1 = alloca i32, align 4
  %2 = bitcast i32* %1 to i8*
  call void @llvm.lifetime.start.p0i8(i64 4, i8* nonnull %2) #8
  store i32 0, i32* %1, align 4, !tbaa !5
  %3 = call nonnull align 8 dereferenceable(16) %"class.std::basic_istream"* @_ZNSirsERi(%"class.std::basic_istream"* nonnull align 8 dereferenceable(16) @_ZSt3cin, i32* nonnull align 4 dereferenceable(4) %1)
  %4 = load i32, i32* %1, align 4, !tbaa !5
  %5 = add i32 %4, -1
  %6 = icmp ugt i32 %5, 98
  br i1 %6, label %59, label %7

7:                                                ; preds = %84, %0
  %8 = phi i32 [ %4, %0 ], [ %89, %84 ]
  %9 = icmp ult i32 %8, 8
  br i1 %9, label %56, label %10

10:                                               ; preds = %7
  %11 = and i32 %8, -8
  %12 = or i32 %11, 1
  br label %13

13:                                               ; preds = %13, %10
  %14 = phi i32 [ 0, %10 ], [ %49, %13 ]
  %15 = phi <4 x i32> [ zeroinitializer, %10 ], [ %46, %13 ]
  %16 = phi <4 x i32> [ zeroinitializer, %10 ], [ %48, %13 ]
  %17 = phi <4 x i32> [ <i32 1, i32 2, i32 3, i32 4>, %10 ], [ %50, %13 ]
  %18 = add <4 x i32> %17, <i32 4, i32 4, i32 4, i32 4>
  %19 = icmp ugt <4 x i32> %17, <i32 9, i32 9, i32 9, i32 9>
  %20 = icmp ugt <4 x i32> %18, <i32 9, i32 9, i32 9, i32 9>
  %21 = icmp eq <4 x i32> %17, <i32 7, i32 7, i32 7, i32 7>
  %22 = icmp eq <4 x i32> %18, <i32 7, i32 7, i32 7, i32 7>
  %23 = urem <4 x i32> %17, <i32 7, i32 7, i32 7, i32 7>
  %24 = urem <4 x i32> %18, <i32 7, i32 7, i32 7, i32 7>
  %25 = icmp eq <4 x i32> %23, zeroinitializer
  %26 = icmp eq <4 x i32> %24, zeroinitializer
  %27 = urem <4 x i32> %17, <i32 10, i32 10, i32 10, i32 10>
  %28 = urem <4 x i32> %18, <i32 10, i32 10, i32 10, i32 10>
  %29 = icmp eq <4 x i32> %27, <i32 7, i32 7, i32 7, i32 7>
  %30 = icmp eq <4 x i32> %28, <i32 7, i32 7, i32 7, i32 7>
  %31 = or <4 x i1> %25, %29
  %32 = or <4 x i1> %26, %30
  %33 = add nsw <4 x i32> %17, <i32 -70, i32 -70, i32 -70, i32 -70>
  %34 = add <4 x i32> %17, <i32 -66, i32 -66, i32 -66, i32 -66>
  %35 = icmp ult <4 x i32> %33, <i32 10, i32 10, i32 10, i32 10>
  %36 = icmp ult <4 x i32> %34, <i32 10, i32 10, i32 10, i32 10>
  %37 = select <4 x i1> %31, <4 x i1> <i1 true, i1 true, i1 true, i1 true>, <4 x i1> %35
  %38 = select <4 x i1> %32, <4 x i1> <i1 true, i1 true, i1 true, i1 true>, <4 x i1> %36
  %39 = or <4 x i1> %19, %21
  %40 = or <4 x i1> %20, %22
  %41 = select <4 x i1> %39, <4 x i1> %37, <4 x i1> zeroinitializer
  %42 = select <4 x i1> %40, <4 x i1> %38, <4 x i1> zeroinitializer
  %43 = mul nsw <4 x i32> %17, %17
  %44 = mul nsw <4 x i32> %18, %18
  %45 = select <4 x i1> %41, <4 x i32> zeroinitializer, <4 x i32> %43
  %46 = add <4 x i32> %15, %45
  %47 = select <4 x i1> %42, <4 x i32> zeroinitializer, <4 x i32> %44
  %48 = add <4 x i32> %16, %47
  %49 = add nuw i32 %14, 8
  %50 = add <4 x i32> %17, <i32 8, i32 8, i32 8, i32 8>
  %51 = icmp eq i32 %49, %11
  br i1 %51, label %52, label %13, !llvm.loop !9

52:                                               ; preds = %13
  %53 = add <4 x i32> %48, %46
  %54 = call i32 @llvm.vector.reduce.add.v4i32(<4 x i32> %53)
  %55 = icmp eq i32 %8, %11
  br i1 %55, label %117, label %56

56:                                               ; preds = %7, %52
  %57 = phi i32 [ 0, %7 ], [ %54, %52 ]
  %58 = phi i32 [ 1, %7 ], [ %12, %52 ]
  br label %92

59:                                               ; preds = %0, %84
  %60 = call nonnull align 8 dereferenceable(8) %"class.std::basic_ostream"* @_ZSt16__ostream_insertIcSt11char_traitsIcEERSt13basic_ostreamIT_T0_ES6_PKS3_l(%"class.std::basic_ostream"* nonnull align 8 dereferenceable(8) @_ZSt4cout, i8* nonnull getelementptr inbounds ([13 x i8], [13 x i8]* @.str, i64 0, i64 0), i64 12)
  %61 = load i8*, i8** bitcast (%"class.std::basic_ostream"* @_ZSt4cout to i8**), align 8, !tbaa !12
  %62 = getelementptr i8, i8* %61, i64 -24
  %63 = bitcast i8* %62 to i64*
  %64 = load i64, i64* %63, align 8
  %65 = add nsw i64 %64, 240
  %66 = getelementptr inbounds i8, i8* bitcast (%"class.std::basic_ostream"* @_ZSt4cout to i8*), i64 %65
  %67 = bitcast i8* %66 to %"class.std::ctype"**
  %68 = load %"class.std::ctype"*, %"class.std::ctype"** %67, align 8, !tbaa !14
  %69 = icmp eq %"class.std::ctype"* %68, null
  br i1 %69, label %70, label %71

70:                                               ; preds = %59
  call void @_ZSt16__throw_bad_castv() #9
  unreachable

71:                                               ; preds = %59
  %72 = getelementptr inbounds %"class.std::ctype", %"class.std::ctype"* %68, i64 0, i32 8
  %73 = load i8, i8* %72, align 8, !tbaa !18
  %74 = icmp eq i8 %73, 0
  br i1 %74, label %78, label %75

75:                                               ; preds = %71
  %76 = getelementptr inbounds %"class.std::ctype", %"class.std::ctype"* %68, i64 0, i32 9, i64 10
  %77 = load i8, i8* %76, align 1, !tbaa !20
  br label %84

78:                                               ; preds = %71
  call void @_ZNKSt5ctypeIcE13_M_widen_initEv(%"class.std::ctype"* nonnull align 8 dereferenceable(570) %68)
  %79 = bitcast %"class.std::ctype"* %68 to i8 (%"class.std::ctype"*, i8)***
  %80 = load i8 (%"class.std::ctype"*, i8)**, i8 (%"class.std::ctype"*, i8)*** %79, align 8, !tbaa !12
  %81 = getelementptr inbounds i8 (%"class.std::ctype"*, i8)*, i8 (%"class.std::ctype"*, i8)** %80, i64 6
  %82 = load i8 (%"class.std::ctype"*, i8)*, i8 (%"class.std::ctype"*, i8)** %81, align 8
  %83 = call signext i8 %82(%"class.std::ctype"* nonnull align 8 dereferenceable(570) %68, i8 signext 10)
  br label %84

84:                                               ; preds = %75, %78
  %85 = phi i8 [ %77, %75 ], [ %83, %78 ]
  %86 = call nonnull align 8 dereferenceable(8) %"class.std::basic_ostream"* @_ZNSo3putEc(%"class.std::basic_ostream"* nonnull align 8 dereferenceable(8) @_ZSt4cout, i8 signext %85)
  %87 = call nonnull align 8 dereferenceable(8) %"class.std::basic_ostream"* @_ZNSo5flushEv(%"class.std::basic_ostream"* nonnull align 8 dereferenceable(8) %86)
  %88 = call nonnull align 8 dereferenceable(16) %"class.std::basic_istream"* @_ZNSirsERi(%"class.std::basic_istream"* nonnull align 8 dereferenceable(16) @_ZSt3cin, i32* nonnull align 4 dereferenceable(4) %1)
  %89 = load i32, i32* %1, align 4, !tbaa !5
  %90 = add i32 %89, -1
  %91 = icmp ugt i32 %90, 98
  br i1 %91, label %59, label %7, !llvm.loop !21

92:                                               ; preds = %56, %113
  %93 = phi i32 [ %114, %113 ], [ %57, %56 ]
  %94 = phi i32 [ %115, %113 ], [ %58, %56 ]
  %95 = icmp ult i32 %94, 10
  %96 = icmp ne i32 %94, 7
  %97 = and i1 %95, %96
  br i1 %97, label %98, label %101

98:                                               ; preds = %92
  %99 = mul nuw nsw i32 %94, %94
  %100 = add nsw i32 %93, %99
  br label %113

101:                                              ; preds = %92
  %102 = urem i32 %94, 7
  %103 = icmp eq i32 %102, 0
  %104 = urem i32 %94, 10
  %105 = icmp eq i32 %104, 7
  %106 = or i1 %103, %105
  %107 = add nsw i32 %94, -70
  %108 = icmp ult i32 %107, 10
  %109 = select i1 %106, i1 true, i1 %108
  br i1 %109, label %113, label %110

110:                                              ; preds = %101
  %111 = mul nsw i32 %94, %94
  %112 = add nsw i32 %93, %111
  br label %113

113:                                              ; preds = %98, %110, %101
  %114 = phi i32 [ %100, %98 ], [ %112, %110 ], [ %93, %101 ]
  %115 = add nuw i32 %94, 1
  %116 = icmp eq i32 %94, %8
  br i1 %116, label %117, label %92, !llvm.loop !22

117:                                              ; preds = %113, %52
  %118 = phi i32 [ %54, %52 ], [ %114, %113 ]
  %119 = call nonnull align 8 dereferenceable(8) %"class.std::basic_ostream"* @_ZNSolsEi(%"class.std::basic_ostream"* nonnull align 8 dereferenceable(8) @_ZSt4cout, i32 %118)
  call void @llvm.lifetime.end.p0i8(i64 4, i8* nonnull %2) #8
  ret i32 0
}

; Function Attrs: argmemonly mustprogress nofree nosync nounwind willreturn
declare void @llvm.lifetime.start.p0i8(i64 immarg, i8* nocapture) #4

declare nonnull align 8 dereferenceable(16) %"class.std::basic_istream"* @_ZNSirsERi(%"class.std::basic_istream"* nonnull align 8 dereferenceable(16), i32* nonnull align 4 dereferenceable(4)) local_unnamed_addr #0

declare nonnull align 8 dereferenceable(8) %"class.std::basic_ostream"* @_ZNSolsEi(%"class.std::basic_ostream"* nonnull align 8 dereferenceable(8), i32) local_unnamed_addr #0

; Function Attrs: argmemonly mustprogress nofree nosync nounwind willreturn
declare void @llvm.lifetime.end.p0i8(i64 immarg, i8* nocapture) #4

declare nonnull align 8 dereferenceable(8) %"class.std::basic_ostream"* @_ZSt16__ostream_insertIcSt11char_traitsIcEERSt13basic_ostreamIT_T0_ES6_PKS3_l(%"class.std::basic_ostream"* nonnull align 8 dereferenceable(8), i8*, i64) local_unnamed_addr #0

declare nonnull align 8 dereferenceable(8) %"class.std::basic_ostream"* @_ZNSo3putEc(%"class.std::basic_ostream"* nonnull align 8 dereferenceable(8), i8 signext) local_unnamed_addr #0

declare nonnull align 8 dereferenceable(8) %"class.std::basic_ostream"* @_ZNSo5flushEv(%"class.std::basic_ostream"* nonnull align 8 dereferenceable(8)) local_unnamed_addr #0

; Function Attrs: noreturn
declare void @_ZSt16__throw_bad_castv() local_unnamed_addr #5

declare void @_ZNKSt5ctypeIcE13_M_widen_initEv(%"class.std::ctype"* nonnull align 8 dereferenceable(570)) local_unnamed_addr #0

; Function Attrs: sspstrong uwtable
define internal void @_GLOBAL__sub_I_1449.cpp() #6 section ".text.startup" {
  tail call void @_ZNSt8ios_base4InitC1Ev(%"class.std::ios_base::Init"* nonnull align 1 dereferenceable(1) @_ZStL8__ioinit)
  %1 = tail call i32 @__cxa_atexit(void (i8*)* bitcast (void (%"class.std::ios_base::Init"*)* @_ZNSt8ios_base4InitD1Ev to void (i8*)*), i8* getelementptr inbounds (%"class.std::ios_base::Init", %"class.std::ios_base::Init"* @_ZStL8__ioinit, i64 0, i32 0), i8* nonnull @__dso_handle) #8
  ret void
}

; Function Attrs: nofree nosync nounwind readnone willreturn
declare i32 @llvm.vector.reduce.add.v4i32(<4 x i32>) #7


!llvm.module.flags = !{!0, !1, !2, !3}
!llvm.ident = !{!4}

!0 = !{i32 1, !"wchar_size", i32 4}
!1 = !{i32 7, !"PIC Level", i32 2}
!2 = !{i32 7, !"PIE Level", i32 2}
!3 = !{i32 7, !"uwtable", i32 1}
!4 = !{!"clang version 13.0.0"}
!5 = !{!6, !6, i64 0}
!6 = !{!"int", !7, i64 0}
!7 = !{!"omnipotent char", !8, i64 0}
!8 = !{!"Simple C++ TBAA"}
!9 = distinct !{!9, !10, !11}
!10 = !{!"llvm.loop.mustprogress"}
!11 = !{!"llvm.loop.isvectorized", i32 1}
!12 = !{!13, !13, i64 0}
!13 = !{!"vtable pointer", !8, i64 0}
!14 = !{!15, !16, i64 240}
!15 = !{!"_ZTSSt9basic_iosIcSt11char_traitsIcEE", !16, i64 216, !7, i64 224, !17, i64 225, !16, i64 232, !16, i64 240, !16, i64 248, !16, i64 256}
!16 = !{!"any pointer", !7, i64 0}
!17 = !{!"bool", !7, i64 0}
!18 = !{!19, !7, i64 56}
!19 = !{!"_ZTSSt5ctypeIcE", !16, i64 16, !17, i64 24, !16, i64 32, !16, i64 40, !16, i64 48, !7, i64 56, !7, i64 57, !7, i64 313, !7, i64 569}
!20 = !{!7, !7, i64 0}
!21 = distinct !{!21, !10}
!22 = distinct !{!22, !10, !23, !11}
!23 = !{!"llvm.loop.unroll.runtime.disable"}
